; Function Attrs: nounwind uwtable
define internal fastcc noundef i32 @ctl_arena_init(ptr noundef %0, ptr noundef nonnull %1) unnamed_addr #0 {
  %3 = load ptr, ptr @ctl_arenas, align 8, !tbaa !25
  %4 = getelementptr inbounds nuw i8, ptr %3, i64 16
  %5 = load ptr, ptr %4, align 8, !tbaa !45
  %6 = icmp eq ptr %5, null
  br i1 %6, label %.thread, label %7

7:                                                ; preds = %2
  %8 = getelementptr inbounds nuw i8, ptr %5, i64 16
  %9 = load ptr, ptr %8, align 8, !tbaa !220
  %.not = icmp eq ptr %9, null
  br i1 %.not, label %.thread, label %10

10:                                               ; preds = %7
  %11 = icmp eq ptr %5, %9
  br i1 %11, label %12, label %15

12:                                               ; preds = %10
  %13 = getelementptr inbounds nuw i8, ptr %5, i64 8
  %14 = load ptr, ptr %13, align 8, !tbaa !219
  store ptr %14, ptr %4, align 8, !tbaa !45
  br label %15

15:                                               ; preds = %12, %10
  %16 = phi ptr [ %14, %12 ], [ %5, %10 ]
  %.not25 = icmp eq ptr %16, %9
  br i1 %.not25, label %30, label %17

17:                                               ; preds = %15
  %18 = getelementptr inbounds nuw i8, ptr %9, i64 8
  %19 = load ptr, ptr %18, align 8, !tbaa !219
  %20 = getelementptr inbounds nuw i8, ptr %19, i64 16
  %21 = load ptr, ptr %20, align 8, !tbaa !220
  %22 = getelementptr inbounds nuw i8, ptr %9, i64 16
  %23 = load ptr, ptr %22, align 8, !tbaa !220
  %24 = getelementptr inbounds nuw i8, ptr %23, i64 8
  store ptr %21, ptr %24, align 8, !tbaa !219
  %25 = load ptr, ptr %18, align 8, !tbaa !219
  %26 = getelementptr inbounds nuw i8, ptr %25, i64 16
  store ptr %23, ptr %26, align 8, !tbaa !220
  store ptr %21, ptr %22, align 8, !tbaa !220
  %27 = load ptr, ptr %26, align 8, !tbaa !220
  %28 = getelementptr inbounds nuw i8, ptr %27, i64 8
  store ptr %25, ptr %28, align 8, !tbaa !219
  %29 = getelementptr inbounds nuw i8, ptr %21, i64 8
  store ptr %9, ptr %29, align 8, !tbaa !219
  br label %32

30:                                               ; preds = %15
  store ptr null, ptr %4, align 8, !tbaa !45
  br label %32

.thread:                                          ; preds = %2, %7
  %31 = getelementptr inbounds nuw i8, ptr %3, i64 8
  br label %32

32:                                               ; preds = %17, %30, %.thread
  %.020.in = phi ptr [ %31, %.thread ], [ %9, %30 ], [ %9, %17 ]
  %.020 = load i32, ptr %.020.in, align 8, !tbaa !96
  %33 = zext i32 %.020 to i64
  %34 = getelementptr inbounds nuw i8, ptr %3, i64 24
  switch i32 %.020, label %36 [
    i32 4096, label %arenas_i2a_impl.exit.i
    i32 4097, label %35
  ]

35:                                               ; preds = %32
  br label %arenas_i2a_impl.exit.i

36:                                               ; preds = %32
  %37 = add nuw nsw i64 %33, 2
  %38 = and i64 %37, 4294967295
  br label %arenas_i2a_impl.exit.i

arenas_i2a_impl.exit.i:                           ; preds = %36, %35, %32
  %.0.i.i = phi i64 [ %38, %36 ], [ 1, %35 ], [ 0, %32 ]
  %39 = getelementptr inbounds nuw [4097 x ptr], ptr %34, i64 0, i64 %.0.i.i
  %40 = load ptr, ptr %39, align 8, !tbaa !29
  %41 = icmp eq ptr %40, null
  br i1 %41, label %42, label %55

42:                                               ; preds = %arenas_i2a_impl.exit.i
  %43 = tail call ptr @je_b0get() #15
  %44 = tail call ptr @je_base_alloc(ptr noundef %0, ptr noundef %43, i64 noundef 39104, i64 noundef 16) #15
  %.not.i = icmp eq ptr %44, null
  br i1 %.not.i, label %arenas_i_impl.exit, label %45

45:                                               ; preds = %42
  %46 = getelementptr inbounds nuw i8, ptr %44, i64 88
  %47 = getelementptr inbounds nuw i8, ptr %44, i64 80
  store ptr %46, ptr %47, align 8, !tbaa !31
  store i32 %.020, ptr %44, align 8, !tbaa !35
  %48 = load ptr, ptr @ctl_arenas, align 8, !tbaa !25
  %49 = getelementptr inbounds nuw i8, ptr %48, i64 24
  switch i32 %.020, label %51 [
    i32 4096, label %arenas_i2a_impl.exit23.i
    i32 4097, label %50
  ]

50:                                               ; preds = %45
  br label %arenas_i2a_impl.exit23.i

51:                                               ; preds = %45
  %52 = add nuw nsw i64 %33, 2
  %53 = and i64 %52, 4294967295
  br label %arenas_i2a_impl.exit23.i

arenas_i2a_impl.exit23.i:                         ; preds = %51, %50, %45
  %.0.i22.i = phi i64 [ %53, %51 ], [ 1, %50 ], [ 0, %45 ]
  %54 = getelementptr inbounds nuw [4097 x ptr], ptr %49, i64 0, i64 %.0.i22.i
  store ptr %44, ptr %54, align 8, !tbaa !29
  br label %55

55:                                               ; preds = %arenas_i2a_impl.exit23.i, %arenas_i2a_impl.exit.i
  %56 = tail call ptr @je_arena_init(ptr noundef %0, i32 noundef %.020, ptr noundef nonnull %1) #15
  %57 = icmp eq ptr %56, null
  br i1 %57, label %arenas_i_impl.exit, label %58

58:                                               ; preds = %55
  %59 = load ptr, ptr @ctl_arenas, align 8, !tbaa !25
  %60 = getelementptr inbounds nuw i8, ptr %59, i64 8
  %61 = load i32, ptr %60, align 8, !tbaa !40
  %62 = icmp eq i32 %.020, %61
  br i1 %62, label %63, label %arenas_i_impl.exit

63:                                               ; preds = %58
  %64 = add i32 %.020, 1
  store i32 %64, ptr %60, align 8, !tbaa !40
  br label %arenas_i_impl.exit

arenas_i_impl.exit:                               ; preds = %42, %58, %63, %55
  %.0 = phi i32 [ -1, %55 ], [ %.020, %63 ], [ %.020, %58 ], [ -1, %42 ]
  ret i32 %.0
}